target datalayout = "e-m:e-p270:32:32-p271:32:32-p272:64:64-i64:64-i128:128-f80:128-n8:16:32:64-S128"
target triple = "x86_64-pc-linux-gnu"

%struct.WalSndCtlData = type { [3 x %struct.dlist_head], [3 x i64], i8, %struct.ConditionVariable, %struct.ConditionVariable, %struct.ConditionVariable, [0 x %struct.WalSnd] }
%struct.dlist_head = type { %struct.dlist_node }
%struct.dlist_node = type { ptr, ptr }
%struct.ConditionVariable = type { i8, %struct.proclist_head }
%struct.proclist_head = type { i32, i32 }
%struct.WalSnd = type { i32, i32, i64, i8, i64, i64, i64, i64, i64, i64, i32, i8, i64, i32 }
%union.LWLockPadded = type { %struct.LWLock, [112 x i8] }
%struct.LWLock = type { i16, %struct.pg_atomic_uint32, %struct.proclist_head }
%struct.pg_atomic_uint32 = type { i32 }
%struct.PGPROC = type { %struct.dlist_node, ptr, ptr, i32, %struct.Latch, i32, i32, i32, i32, %struct.anon, i32, i32, i32, i8, i8, i8, i8, %struct.proclist_node, %struct.proclist_node, ptr, ptr, i32, i32, %struct.pg_atomic_uint64, i32, i8, i64, i32, %struct.dlist_node, [16 x %struct.dlist_head], %struct.XidCacheStatus, %struct.XidCache, i8, %struct.pg_atomic_uint32, i32, i32, i8, %struct.pg_atomic_uint32, i32, i32, i64, i64, %struct.LWLock, ptr, ptr, i8, i32, ptr, %struct.dlist_head, %struct.dlist_node }
%struct.Latch = type { i32, i32, i8, i32 }
%struct.anon = type { i32, i32 }
%struct.proclist_node = type { i32, i32 }
%struct.pg_atomic_uint64 = type { i64 }
%struct.XidCacheStatus = type { i8, i8 }
%struct.XidCache = type { [64 x i32] }
%struct.dlist_mutable_iter = type { ptr, ptr, ptr }

@WalSndCtl = external global ptr, align 8
@MainLWLockArray = external global ptr, align 8
@SyncRepStandbyNames = dso_local global ptr null, align 8

; Function Attrs: inlinehint nounwind uwtable
define internal void @dlist_delete_thoroughly(ptr noundef %0) #4 {
  %2 = alloca ptr, align 8
  store ptr %0, ptr %2, align 8
  %3 = load ptr, ptr %2, align 8
  %4 = getelementptr inbounds nuw %struct.dlist_node, ptr %3, i32 0, i32 1
  %5 = load ptr, ptr %4, align 8
  %6 = load ptr, ptr %2, align 8
  %7 = getelementptr inbounds nuw %struct.dlist_node, ptr %6, i32 0, i32 0
  %8 = load ptr, ptr %7, align 8
  %9 = getelementptr inbounds nuw %struct.dlist_node, ptr %8, i32 0, i32 1
  store ptr %5, ptr %9, align 8
  %10 = load ptr, ptr %2, align 8
  %11 = getelementptr inbounds nuw %struct.dlist_node, ptr %10, i32 0, i32 0
  %12 = load ptr, ptr %11, align 8
  %13 = load ptr, ptr %2, align 8
  %14 = getelementptr inbounds nuw %struct.dlist_node, ptr %13, i32 0, i32 1
  %15 = load ptr, ptr %14, align 8
  %16 = getelementptr inbounds nuw %struct.dlist_node, ptr %15, i32 0, i32 0
  store ptr %12, ptr %16, align 8
  %17 = load ptr, ptr %2, align 8
  %18 = getelementptr inbounds nuw %struct.dlist_node, ptr %17, i32 0, i32 1
  store ptr null, ptr %18, align 8
  %19 = load ptr, ptr %2, align 8
  %20 = getelementptr inbounds nuw %struct.dlist_node, ptr %19, i32 0, i32 0
  store ptr null, ptr %20, align 8
  ret void
}

; Function Attrs: nounwind uwtable
define internal i32 @SyncRepWakeQueue(i1 noundef zeroext %0, i32 noundef %1) #0 {
  %3 = alloca i32, align 4
  %4 = alloca i8, align 1
  %5 = alloca i32, align 4
  %6 = alloca ptr, align 8
  %7 = alloca i32, align 4
  %8 = alloca %struct.dlist_mutable_iter, align 8
  %9 = alloca i32, align 4
  %10 = alloca i32, align 4
  %11 = alloca ptr, align 8
  %12 = alloca i32, align 4
  %13 = alloca i32, align 4
  %14 = alloca i32, align 4
  %15 = zext i1 %0 to i8
  store i8 %15, ptr %4, align 1
  store i32 %1, ptr %5, align 4
  call void @llvm.lifetime.start.p0(i64 8, ptr %6) #8
  %16 = load ptr, ptr @WalSndCtl, align 8
  store ptr %16, ptr %6, align 8
  call void @llvm.lifetime.start.p0(i64 4, ptr %7) #8
  store i32 0, ptr %7, align 4
  call void @llvm.lifetime.start.p0(i64 24, ptr %8) #8
  br label %17

17:                                               ; preds = %2
  br label %18

18:                                               ; preds = %17
  br label %19

19:                                               ; preds = %18
  store i32 1, ptr %9, align 4
  br label %20

20:                                               ; preds = %19
  br label %21

21:                                               ; preds = %20
  br label %22

22:                                               ; preds = %21
  store i32 1, ptr %10, align 4
  %23 = load ptr, ptr @WalSndCtl, align 8
  %24 = getelementptr inbounds nuw %struct.WalSndCtlData, ptr %23, i32 0, i32 0
  %25 = load i32, ptr %5, align 4
  %26 = sext i32 %25 to i64
  %27 = getelementptr inbounds [3 x %struct.dlist_head], ptr %24, i64 0, i64 %26
  %28 = getelementptr inbounds nuw %struct.dlist_head, ptr %27, i32 0, i32 0
  %29 = getelementptr inbounds nuw %struct.dlist_mutable_iter, ptr %8, i32 0, i32 2
  store ptr %28, ptr %29, align 8
  %30 = getelementptr inbounds nuw %struct.dlist_mutable_iter, ptr %8, i32 0, i32 2
  %31 = load ptr, ptr %30, align 8
  %32 = getelementptr inbounds nuw %struct.dlist_node, ptr %31, i32 0, i32 1
  %33 = load ptr, ptr %32, align 8
  %34 = icmp ne ptr %33, null
  br i1 %34, label %35, label %40

35:                                               ; preds = %22
  %36 = getelementptr inbounds nuw %struct.dlist_mutable_iter, ptr %8, i32 0, i32 2
  %37 = load ptr, ptr %36, align 8
  %38 = getelementptr inbounds nuw %struct.dlist_node, ptr %37, i32 0, i32 1
  %39 = load ptr, ptr %38, align 8
  br label %43

40:                                               ; preds = %22
  %41 = getelementptr inbounds nuw %struct.dlist_mutable_iter, ptr %8, i32 0, i32 2
  %42 = load ptr, ptr %41, align 8
  br label %43

43:                                               ; preds = %40, %35
  %44 = phi ptr [ %39, %35 ], [ %42, %40 ]
  %45 = getelementptr inbounds nuw %struct.dlist_mutable_iter, ptr %8, i32 0, i32 0
  store ptr %44, ptr %45, align 8
  %46 = getelementptr inbounds nuw %struct.dlist_mutable_iter, ptr %8, i32 0, i32 0
  %47 = load ptr, ptr %46, align 8
  %48 = getelementptr inbounds nuw %struct.dlist_node, ptr %47, i32 0, i32 1
  %49 = load ptr, ptr %48, align 8
  %50 = getelementptr inbounds nuw %struct.dlist_mutable_iter, ptr %8, i32 0, i32 1
  store ptr %49, ptr %50, align 8
  br label %51

51:                                               ; preds = %94, %43
  %52 = getelementptr inbounds nuw %struct.dlist_mutable_iter, ptr %8, i32 0, i32 0
  %53 = load ptr, ptr %52, align 8
  %54 = getelementptr inbounds nuw %struct.dlist_mutable_iter, ptr %8, i32 0, i32 2
  %55 = load ptr, ptr %54, align 8
  %56 = icmp ne ptr %53, %55
  br i1 %56, label %57, label %103

57:                                               ; preds = %51
  call void @llvm.lifetime.start.p0(i64 8, ptr %11) #8
  br label %58

58:                                               ; preds = %57
  br label %59

59:                                               ; preds = %58
  br label %60

60:                                               ; preds = %59
  store i32 1, ptr %12, align 4
  br label %61

61:                                               ; preds = %60
  br label %62

62:                                               ; preds = %61
  br label %63

63:                                               ; preds = %62
  store i32 1, ptr %13, align 4
  %64 = getelementptr inbounds nuw %struct.dlist_mutable_iter, ptr %8, i32 0, i32 0
  %65 = load ptr, ptr %64, align 8
  %66 = getelementptr inbounds i8, ptr %65, i64 -168
  store ptr %66, ptr %11, align 8
  %67 = load i8, ptr %4, align 1, !range !4, !noundef !5
  %68 = trunc i8 %67 to i1
  br i1 %68, label %82, label %69

69:                                               ; preds = %63
  %70 = load ptr, ptr %6, align 8
  %71 = getelementptr inbounds nuw %struct.WalSndCtlData, ptr %70, i32 0, i32 1
  %72 = load i32, ptr %5, align 4
  %73 = sext i32 %72 to i64
  %74 = getelementptr inbounds [3 x i64], ptr %71, i64 0, i64 %73
  %75 = load volatile i64, ptr %74, align 8
  %76 = load ptr, ptr %11, align 8
  %77 = getelementptr inbounds nuw %struct.PGPROC, ptr %76, i32 0, i32 26
  %78 = load i64, ptr %77, align 8
  %79 = icmp ult i64 %75, %78
  br i1 %79, label %80, label %82

80:                                               ; preds = %69
  %81 = load i32, ptr %7, align 4
  store i32 %81, ptr %3, align 4
  store i32 1, ptr %14, align 4
  br label %91

82:                                               ; preds = %69, %63
  %83 = load ptr, ptr %11, align 8
  %84 = getelementptr inbounds nuw %struct.PGPROC, ptr %83, i32 0, i32 28
  call void @dlist_delete_thoroughly(ptr noundef %84)
  call void asm sideeffect "", "~{memory},~{dirflag},~{fpsr},~{flags}"() #8, !srcloc !13
  %85 = load ptr, ptr %11, align 8
  %86 = getelementptr inbounds nuw %struct.PGPROC, ptr %85, i32 0, i32 27
  store i32 2, ptr %86, align 8
  %87 = load ptr, ptr %11, align 8
  %88 = getelementptr inbounds nuw %struct.PGPROC, ptr %87, i32 0, i32 4
  call void @SetLatch(ptr noundef %88)
  %89 = load i32, ptr %7, align 4
  %90 = add i32 %89, 1
  store i32 %90, ptr %7, align 4
  store i32 0, ptr %14, align 4
  br label %91

91:                                               ; preds = %82, %80
  call void @llvm.lifetime.end.p0(i64 8, ptr %11) #8
  %92 = load i32, ptr %14, align 4
  switch i32 %92, label %105 [
    i32 0, label %93
  ]

93:                                               ; preds = %91
  br label %94

94:                                               ; preds = %93
  %95 = getelementptr inbounds nuw %struct.dlist_mutable_iter, ptr %8, i32 0, i32 1
  %96 = load ptr, ptr %95, align 8
  %97 = getelementptr inbounds nuw %struct.dlist_mutable_iter, ptr %8, i32 0, i32 0
  store ptr %96, ptr %97, align 8
  %98 = getelementptr inbounds nuw %struct.dlist_mutable_iter, ptr %8, i32 0, i32 0
  %99 = load ptr, ptr %98, align 8
  %100 = getelementptr inbounds nuw %struct.dlist_node, ptr %99, i32 0, i32 1
  %101 = load ptr, ptr %100, align 8
  %102 = getelementptr inbounds nuw %struct.dlist_mutable_iter, ptr %8, i32 0, i32 1
  store ptr %101, ptr %102, align 8
  br label %51, !llvm.loop !14

103:                                              ; preds = %51
  %104 = load i32, ptr %7, align 4
  store i32 %104, ptr %3, align 4
  store i32 1, ptr %14, align 4
  br label %105

105:                                              ; preds = %103, %91
  call void @llvm.lifetime.end.p0(i64 24, ptr %8) #8
  call void @llvm.lifetime.end.p0(i64 4, ptr %7) #8
  call void @llvm.lifetime.end.p0(i64 8, ptr %6) #8
  %106 = load i32, ptr %3, align 4
  ret i32 %106
}

; Function Attrs: nounwind uwtable
define dso_local void @SyncRepUpdateSyncStandbysDefined() #0 {
  %1 = alloca i8, align 1
  %2 = alloca i32, align 4
  call void @llvm.lifetime.start.p0(i64 1, ptr %1) #8
  %3 = load ptr, ptr @SyncRepStandbyNames, align 8
  %4 = icmp ne ptr %3, null
  br i1 %4, label %5, label %11

5:                                                ; preds = %0
  %6 = load ptr, ptr @SyncRepStandbyNames, align 8
  %7 = getelementptr inbounds i8, ptr %6, i64 0
  %8 = load i8, ptr %7, align 1
  %9 = sext i8 %8 to i32
  %10 = icmp ne i32 %9, 0
  br label %11

11:                                               ; preds = %5, %0
  %12 = phi i1 [ false, %0 ], [ %10, %5 ]
  %13 = zext i1 %12 to i8
  store i8 %13, ptr %1, align 1
  %14 = load i8, ptr %1, align 1, !range !4, !noundef !5
  %15 = trunc i8 %14 to i1
  %16 = zext i1 %15 to i32
  %17 = load ptr, ptr @WalSndCtl, align 8
  %18 = getelementptr inbounds nuw %struct.WalSndCtlData, ptr %17, i32 0, i32 2
  %19 = load i8, ptr %18, align 8, !range !4, !noundef !5
  %20 = trunc i8 %19 to i1
  %21 = zext i1 %20 to i32
  %22 = icmp ne i32 %16, %21
  br i1 %22, label %23, label %48

23:                                               ; preds = %11
  %24 = load ptr, ptr @MainLWLockArray, align 8
  %25 = getelementptr inbounds %union.LWLockPadded, ptr %24, i64 32
  %26 = call zeroext i1 @LWLockAcquire(ptr noundef %25, i32 noundef 0)
  %27 = load i8, ptr %1, align 1, !range !4, !noundef !5
  %28 = trunc i8 %27 to i1
  br i1 %28, label %40, label %29

29:                                               ; preds = %23
  call void @llvm.lifetime.start.p0(i64 4, ptr %2) #8
  store i32 0, ptr %2, align 4
  br label %30

30:                                               ; preds = %36, %29
  %31 = load i32, ptr %2, align 4
  %32 = icmp slt i32 %31, 3
  br i1 %32, label %33, label %39

33:                                               ; preds = %30
  %34 = load i32, ptr %2, align 4
  %35 = call i32 @SyncRepWakeQueue(i1 noundef zeroext true, i32 noundef %34)
  br label %36

36:                                               ; preds = %33
  %37 = load i32, ptr %2, align 4
  %38 = add i32 %37, 1
  store i32 %38, ptr %2, align 4
  br label %30, !llvm.loop !17

39:                                               ; preds = %30
  call void @llvm.lifetime.end.p0(i64 4, ptr %2) #8
  br label %40

40:                                               ; preds = %39, %23
  %41 = load i8, ptr %1, align 1, !range !4, !noundef !5
  %42 = trunc i8 %41 to i1
  %43 = load ptr, ptr @WalSndCtl, align 8
  %44 = getelementptr inbounds nuw %struct.WalSndCtlData, ptr %43, i32 0, i32 2
  %45 = zext i1 %42 to i8
  store i8 %45, ptr %44, align 8
  %46 = load ptr, ptr @MainLWLockArray, align 8
  %47 = getelementptr inbounds %union.LWLockPadded, ptr %46, i64 32
  call void @LWLockRelease(ptr noundef %47)
  br label %48

48:                                               ; preds = %40, %11
  call void @llvm.lifetime.end.p0(i64 1, ptr %1) #8
  ret void
}