; Function Attrs: nounwind uwtable
define dso_local void @SyncRepUpdateSyncStandbysDefined() local_unnamed_addr #0 {
  %1 = load ptr, ptr @SyncRepStandbyNames, align 8
  %.not = icmp eq ptr %1, null
  br i1 %.not, label %5, label %2

2:                                                ; preds = %0
  %3 = load i8, ptr %1, align 1
  %4 = icmp ne i8 %3, 0
  br label %5

5:                                                ; preds = %2, %0
  %6 = phi i1 [ false, %0 ], [ %4, %2 ]
  %7 = zext i1 %6 to i8
  %8 = load ptr, ptr @WalSndCtl, align 8
  %9 = getelementptr inbounds nuw i8, ptr %8, i64 72
  %10 = load i8, ptr %9, align 8, !range !4, !noundef !5
  %.not7 = icmp eq i8 %10, %7
  br i1 %.not7, label %28, label %11

11:                                               ; preds = %5
  %12 = load ptr, ptr @MainLWLockArray, align 8
  %13 = getelementptr inbounds nuw i8, ptr %12, i64 4096
  %14 = tail call zeroext i1 @LWLockAcquire(ptr noundef nonnull %13, i32 noundef 0) #10
  br i1 %6, label %.loopexit, label %.preheader

.preheader:                                       ; preds = %11, %SyncRepWakeQueue.exit
  %indvars.iv = phi i64 [ %indvars.iv.next, %SyncRepWakeQueue.exit ], [ 0, %11 ]
  %15 = load ptr, ptr @WalSndCtl, align 8
  %16 = getelementptr inbounds nuw [3 x %struct.dlist_head], ptr %15, i64 0, i64 %indvars.iv
  %17 = getelementptr inbounds nuw i8, ptr %16, i64 8
  %18 = load ptr, ptr %17, align 8
  %.not.i = icmp eq ptr %18, null
  %.not222834.i = icmp eq ptr %18, %16
  %.not2228.i = or i1 %.not.i, %.not222834.i
  br i1 %.not2228.i, label %SyncRepWakeQueue.exit, label %.lr.ph.split.us.i

.lr.ph.split.us.i:                                ; preds = %.preheader, %.lr.ph.split.us.i
  %.sroa.0.029.us.i = phi ptr [ %.sroa.8.031.us.i, %.lr.ph.split.us.i ], [ %18, %.preheader ]
  %.sroa.8.031.us.i.in = getelementptr inbounds nuw i8, ptr %.sroa.0.029.us.i, i64 8
  %.sroa.8.031.us.i = load ptr, ptr %.sroa.8.031.us.i.in, align 8
  %19 = load ptr, ptr %.sroa.0.029.us.i, align 8
  %20 = getelementptr inbounds nuw i8, ptr %19, i64 8
  store ptr %.sroa.8.031.us.i, ptr %20, align 8
  %21 = load ptr, ptr %.sroa.0.029.us.i, align 8
  store ptr %21, ptr %.sroa.8.031.us.i, align 8
  tail call void @llvm.memset.p0.i64(ptr noundef nonnull align 8 dereferenceable(16) %.sroa.0.029.us.i, i8 0, i64 16, i1 false)
  tail call void asm sideeffect "", "~{memory},~{dirflag},~{fpsr},~{flags}"() #10, !srcloc !15
  %22 = getelementptr inbounds i8, ptr %.sroa.0.029.us.i, i64 -8
  store i32 2, ptr %22, align 8
  %23 = getelementptr inbounds i8, ptr %.sroa.0.029.us.i, i64 -132
  tail call void @SetLatch(ptr noundef nonnull %23) #10
  %.not22.us.i = icmp eq ptr %.sroa.8.031.us.i, %16
  br i1 %.not22.us.i, label %SyncRepWakeQueue.exit, label %.lr.ph.split.us.i, !llvm.loop !16

SyncRepWakeQueue.exit:                            ; preds = %.lr.ph.split.us.i, %.preheader
  %indvars.iv.next = add nuw nsw i64 %indvars.iv, 1
  %exitcond.not = icmp eq i64 %indvars.iv.next, 3
  br i1 %exitcond.not, label %.loopexit, label %.preheader, !llvm.loop !19

.loopexit:                                        ; preds = %SyncRepWakeQueue.exit, %11
  %24 = load ptr, ptr @WalSndCtl, align 8
  %25 = getelementptr inbounds nuw i8, ptr %24, i64 72
  store i8 %7, ptr %25, align 8
  %26 = load ptr, ptr @MainLWLockArray, align 8
  %27 = getelementptr inbounds nuw i8, ptr %26, i64 4096
  tail call void @LWLockRelease(ptr noundef nonnull %27) #10
  br label %28

28:                                               ; preds = %.loopexit, %5
  ret void
}